target datalayout = "e-m:e-p270:32:32-p271:32:32-p272:64:64-i64:64-i128:128-f80:128-n8:16:32:64-S128"
target triple = "x86_64-pc-linux-gnu"

%struct._GArray = type { ptr, i32 }
%struct.file_type_subtype_info = type { ptr, ptr, ptr, ptr, i8, i64, ptr, ptr, ptr, ptr }

@file_type_subtype_table_arr = internal global ptr null, align 8
@file_type_subtype_table = internal global ptr null, align 8
@type_subtype_name_map = internal global ptr null, align 8

; Function Attrs: null_pointer_is_valid sspstrong uwtable
define i32 @wtap_name_to_file_type_subtype(ptr noundef %0) #0 {
  %2 = alloca i32, align 4
  %3 = alloca ptr, align 8
  %4 = alloca ptr, align 8
  %5 = alloca i32, align 4
  %6 = alloca i32, align 4
  store ptr %0, ptr %3, align 8
  call void @llvm.lifetime.start.p0(i64 8, ptr %4) #12
  call void @llvm.lifetime.start.p0(i64 4, ptr %5) #12
  %7 = load ptr, ptr @type_subtype_name_map, align 8
  %8 = load ptr, ptr %3, align 8
  %9 = call ptr @g_hash_table_lookup(ptr noundef %7, ptr noundef %8)
  store ptr %9, ptr %4, align 8
  %10 = load ptr, ptr %4, align 8
  %11 = icmp ne ptr %10, null
  br i1 %11, label %12, label %14

12:                                               ; preds = %1
  %13 = load ptr, ptr %4, align 8
  store ptr %13, ptr %3, align 8
  br label %14

14:                                               ; preds = %12, %1
  store i32 0, ptr %5, align 4
  br label %15

15:                                               ; preds = %42, %14
  %16 = load i32, ptr %5, align 4
  %17 = load ptr, ptr @file_type_subtype_table_arr, align 8
  %18 = getelementptr inbounds nuw %struct._GArray, ptr %17, i32 0, i32 1
  %19 = load i32, ptr %18, align 8
  %20 = icmp slt i32 %16, %19
  br i1 %20, label %21, label %45

21:                                               ; preds = %15
  %22 = load ptr, ptr @file_type_subtype_table, align 8
  %23 = load i32, ptr %5, align 4
  %24 = sext i32 %23 to i64
  %25 = getelementptr %struct.file_type_subtype_info, ptr %22, i64 %24
  %26 = getelementptr inbounds nuw %struct.file_type_subtype_info, ptr %25, i32 0, i32 1
  %27 = load ptr, ptr %26, align 8
  %28 = icmp ne ptr %27, null
  br i1 %28, label %29, label %41

29:                                               ; preds = %21
  %30 = load ptr, ptr %3, align 8
  %31 = load ptr, ptr @file_type_subtype_table, align 8
  %32 = load i32, ptr %5, align 4
  %33 = sext i32 %32 to i64
  %34 = getelementptr %struct.file_type_subtype_info, ptr %31, i64 %33
  %35 = getelementptr inbounds nuw %struct.file_type_subtype_info, ptr %34, i32 0, i32 1
  %36 = load ptr, ptr %35, align 8
  %37 = call i32 @strcmp(ptr noundef %30, ptr noundef %36) #14
  %38 = icmp eq i32 %37, 0
  br i1 %38, label %39, label %41

39:                                               ; preds = %29
  %40 = load i32, ptr %5, align 4
  store i32 %40, ptr %2, align 4
  store i32 1, ptr %6, align 4
  br label %46

41:                                               ; preds = %29, %21
  br label %42

42:                                               ; preds = %41
  %43 = load i32, ptr %5, align 4
  %44 = add i32 %43, 1
  store i32 %44, ptr %5, align 4
  br label %15, !llvm.loop !21

45:                                               ; preds = %15
  store i32 -1, ptr %2, align 4
  store i32 1, ptr %6, align 4
  br label %46

46:                                               ; preds = %45, %39
  call void @llvm.lifetime.end.p0(i64 4, ptr %5) #12
  call void @llvm.lifetime.end.p0(i64 8, ptr %4) #12
  %47 = load i32, ptr %2, align 4
  ret i32 %47
}