; Function Attrs: null_pointer_is_valid sspstrong uwtable
define range(i32 -2147483648, 2147483647) i32 @wtap_name_to_file_type_subtype(ptr noundef %0) local_unnamed_addr #0 {
  %2 = load ptr, ptr @type_subtype_name_map, align 8
  %3 = tail call ptr @g_hash_table_lookup(ptr noundef %2, ptr noundef %0)
  %.not = icmp eq ptr %3, null
  %spec.select = select i1 %.not, ptr %0, ptr %3
  %4 = load ptr, ptr @file_type_subtype_table_arr, align 8
  %5 = getelementptr inbounds nuw i8, ptr %4, i64 8
  %6 = load i32, ptr %5, align 8
  %7 = icmp sgt i32 %6, 0
  br i1 %7, label %.lr.ph, label %._crit_edge

.lr.ph:                                           ; preds = %1
  %8 = load ptr, ptr @file_type_subtype_table, align 8
  %wide.trip.count = zext nneg i32 %6 to i64
  br label %9

9:                                                ; preds = %.lr.ph, %15
  %indvars.iv = phi i64 [ 0, %.lr.ph ], [ %indvars.iv.next, %15 ]
  %10 = getelementptr %struct.file_type_subtype_info, ptr %8, i64 %indvars.iv, i32 1
  %11 = load ptr, ptr %10, align 8
  %.not13 = icmp eq ptr %11, null
  br i1 %.not13, label %15, label %12

12:                                               ; preds = %9
  %13 = tail call i32 @strcmp(ptr noundef %spec.select, ptr noundef nonnull dereferenceable(1) %11) #23
  %14 = icmp eq i32 %13, 0
  br i1 %14, label %._crit_edge.loopexit.split.loop.exit18, label %15

15:                                               ; preds = %9, %12
  %indvars.iv.next = add nuw nsw i64 %indvars.iv, 1
  %exitcond.not = icmp eq i64 %indvars.iv.next, %wide.trip.count
  br i1 %exitcond.not, label %._crit_edge, label %9, !llvm.loop !23

._crit_edge.loopexit.split.loop.exit18:           ; preds = %12
  %16 = trunc nuw nsw i64 %indvars.iv to i32
  br label %._crit_edge

._crit_edge:                                      ; preds = %15, %._crit_edge.loopexit.split.loop.exit18, %1
  %.09 = phi i32 [ -1, %1 ], [ %16, %._crit_edge.loopexit.split.loop.exit18 ], [ -1, %15 ]
  ret i32 %.09
}